target datalayout = "e-m:e-p270:32:32-p271:32:32-p272:64:64-i64:64-i128:128-f80:128-n8:16:32:64-S128"
target triple = "x86_64-pc-linux-gnu"

@_ZN18ReferenceProcessor25_soft_ref_timestamp_clockE = hidden global i64 0, align 8

; Function Attrs: mustprogress nounwind uwtable
define hidden void @_ZN18ReferenceProcessor28update_soft_ref_master_clockEv(ptr noundef nonnull align 8 dereferenceable(88) %0) #1 align 2 {
  %2 = alloca ptr, align 8
  %3 = alloca i64, align 8
  store ptr %0, ptr %2, align 8
  %4 = call noundef i64 @_ZN2os13javaTimeNanosEv()
  %5 = sdiv i64 %4, 1000000
  store i64 %5, ptr %3, align 8
  %6 = load i64, ptr %3, align 8
  %7 = load i64, ptr @_ZN18ReferenceProcessor25_soft_ref_timestamp_clockE, align 8
  %8 = icmp sgt i64 %6, %7
  br i1 %8, label %9, label %12

9:                                                ; preds = %1
  %10 = load i64, ptr %3, align 8
  store i64 %10, ptr @_ZN18ReferenceProcessor25_soft_ref_timestamp_clockE, align 8
  %11 = load i64, ptr %3, align 8
  call void @_ZN27java_lang_ref_SoftReference9set_clockEl(i64 noundef %11)
  br label %12

12:                                               ; preds = %9, %1
  ret void
}