; Function Attrs: mustprogress nounwind uwtable
define hidden void @_ZN18ReferenceProcessor28update_soft_ref_master_clockEv(ptr nocapture noundef nonnull readnone align 8 dereferenceable(88) %0) local_unnamed_addr #0 align 2 {
  %2 = tail call noundef i64 @_ZN2os13javaTimeNanosEv() #17
  %3 = sdiv i64 %2, 1000000
  %4 = load i64, ptr @_ZN18ReferenceProcessor25_soft_ref_timestamp_clockE, align 8
  %5 = icmp sgt i64 %3, %4
  br i1 %5, label %6, label %7

6:                                                ; preds = %1
  store i64 %3, ptr @_ZN18ReferenceProcessor25_soft_ref_timestamp_clockE, align 8
  tail call void @_ZN27java_lang_ref_SoftReference9set_clockEl(i64 noundef %3) #17
  br label %7

7:                                                ; preds = %6, %1
  ret void
}